; Function Attrs: mustprogress nounwind uwtable
define internal fastcc void @_ZL6renamePN4llvm11GlobalValueE(ptr noundef nonnull %0) unnamed_addr #0 {
  %2 = alloca %"class.llvm::Twine", align 8
  %3 = tail call { ptr, i64 } @_ZNK4llvm5Value7getNameEv(ptr noundef nonnull align 8 dereferenceable(24) %0) #20
  %4 = extractvalue { ptr, i64 } %3, 0
  %5 = extractvalue { ptr, i64 } %3, 1
  %6 = getelementptr inbounds nuw i8, ptr %2, i64 32
  store i8 5, ptr %6, align 8, !alias.scope !18
  %7 = getelementptr inbounds nuw i8, ptr %2, i64 33
  store i8 3, ptr %7, align 1, !alias.scope !18
  store ptr %4, ptr %2, align 8, !alias.scope !18
  %8 = getelementptr inbounds nuw i8, ptr %2, i64 8
  store i64 %5, ptr %8, align 8, !alias.scope !18
  %9 = getelementptr inbounds nuw i8, ptr %2, i64 16
  store ptr @.str.616, ptr %9, align 8, !alias.scope !18
  call void @_ZN4llvm5Value7setNameERKNS_5TwineE(ptr noundef nonnull align 8 dereferenceable(24) %0, ptr noundef nonnull align 8 dereferenceable(34) %2) #20
  ret void
}